(dp0
S'ref_point'
p1
(dp2
S'cWtil'
p3
S'1'
p4
sS'cW'
p5
g4
ssS'rw_dict'
p6
(dp7
S'cW_0p_cWtil_2p'
p8
I5
sS'cW_1p_cWtil_0p'
p9
I1
sS'cW_1p_cWtil_1p'
p10
I4
sS'cW_0p_cWtil_1p'
p11
I2
sS'cW_0p_cWtil_0p'
p12
I0
sS'cW_2p_cWtil_0p'
p13
I3
ssS'order'
p14
(dp15
g14
I2
ss.
